target datalayout = "e-m:e-p270:32:32-p271:32:32-p272:64:64-i64:64-i128:128-f80:128-n8:16:32:64-S128"
target triple = "x86_64-pc-linux-gnu"

%class.ReferenceProcessor = type { %class.ReferenceDiscoverer, ptr, i8, i8, i8, i32, ptr, ptr, i32, i32, ptr, ptr, ptr, ptr, ptr }
%class.ReferenceDiscoverer = type { ptr }
%class.RefProcMTDegreeAdjuster = type <{ ptr, i32, [4 x i8] }>

@ReferencesPerThread = external global i64, align 8

; Function Attrs: mustprogress nounwind uwtable
define linkonce_odr hidden noundef i64 @_Z4MIN2ImET_S0_S0_(i64 noundef %0, i64 noundef %1) #1 comdat {
  %3 = alloca i64, align 8
  %4 = alloca i64, align 8
  store i64 %0, ptr %3, align 8
  store i64 %1, ptr %4, align 8
  %5 = load i64, ptr %3, align 8
  %6 = load i64, ptr %4, align 8
  %7 = icmp ult i64 %5, %6
  br i1 %7, label %8, label %10

8:                                                ; preds = %2
  %9 = load i64, ptr %3, align 8
  br label %12

10:                                               ; preds = %2
  %11 = load i64, ptr %4, align 8
  br label %12

12:                                               ; preds = %10, %8
  %13 = phi i64 [ %9, %8 ], [ %11, %10 ]
  ret i64 %13
}

; Function Attrs: mustprogress nounwind uwtable
define linkonce_odr hidden noundef i64 @_Z4MIN3ImET_S0_S0_S0_(i64 noundef %0, i64 noundef %1, i64 noundef %2) #1 comdat {
  %4 = alloca i64, align 8
  %5 = alloca i64, align 8
  %6 = alloca i64, align 8
  store i64 %0, ptr %4, align 8
  store i64 %1, ptr %5, align 8
  store i64 %2, ptr %6, align 8
  %7 = load i64, ptr %4, align 8
  %8 = load i64, ptr %5, align 8
  %9 = call noundef i64 @_Z4MIN2ImET_S0_S0_(i64 noundef %7, i64 noundef %8)
  %10 = load i64, ptr %6, align 8
  %11 = call noundef i64 @_Z4MIN2ImET_S0_S0_(i64 noundef %9, i64 noundef %10)
  ret i64 %11
}

; Function Attrs: mustprogress nounwind uwtable
define hidden noundef zeroext i1 @_ZNK23RefProcMTDegreeAdjuster15use_max_threadsEN18ReferenceProcessor13RefProcPhasesE(ptr noundef nonnull align 8 dereferenceable(12) %0, i32 noundef %1) #1 align 2 {
  %3 = alloca ptr, align 8
  %4 = alloca i32, align 4
  store ptr %0, ptr %3, align 8
  store i32 %1, ptr %4, align 4
  %5 = load i32, ptr %4, align 4
  %6 = icmp eq i32 %5, 1
  ret i1 %6
}

; Function Attrs: mustprogress nounwind uwtable
define hidden void @_ZN18ReferenceProcessor20set_active_mt_degreeEj(ptr noundef nonnull align 8 dereferenceable(88) %0, i32 noundef %1) #1 align 2 {
  %3 = alloca ptr, align 8
  %4 = alloca i32, align 4
  store ptr %0, ptr %3, align 8
  store i32 %1, ptr %4, align 4
  %5 = load ptr, ptr %3, align 8
  %6 = load i32, ptr %4, align 4
  %7 = getelementptr inbounds %class.ReferenceProcessor, ptr %5, i32 0, i32 8
  store i32 %6, ptr %7, align 8
  %8 = getelementptr inbounds %class.ReferenceProcessor, ptr %5, i32 0, i32 5
  store i32 0, ptr %8, align 4
  ret void
}

; Function Attrs: mustprogress nounwind uwtable
define hidden noundef i32 @_ZNK23RefProcMTDegreeAdjuster22ergo_proc_thread_countEmjN18ReferenceProcessor13RefProcPhasesE(ptr noundef nonnull align 8 dereferenceable(12) %0, i64 noundef %1, i32 noundef %2, i32 noundef %3) #1 align 2 {
  %5 = alloca i32, align 4
  %6 = alloca ptr, align 8
  %7 = alloca i64, align 8
  %8 = alloca i32, align 4
  %9 = alloca i32, align 4
  %10 = alloca i64, align 8
  store ptr %0, ptr %6, align 8
  store i64 %1, ptr %7, align 8
  store i32 %2, ptr %8, align 4
  store i32 %3, ptr %9, align 4
  %11 = load ptr, ptr %6, align 8
  %12 = load i32, ptr %9, align 4
  %13 = call noundef zeroext i1 @_ZNK23RefProcMTDegreeAdjuster15use_max_threadsEN18ReferenceProcessor13RefProcPhasesE(ptr noundef nonnull align 8 dereferenceable(12) %11, i32 noundef %12)
  br i1 %13, label %17, label %14

14:                                               ; preds = %4
  %15 = load i64, ptr @ReferencesPerThread, align 8
  %16 = icmp eq i64 %15, 0
  br i1 %16, label %17, label %19

17:                                               ; preds = %14, %4
  %18 = load i32, ptr %8, align 4
  store i32 %18, ptr %5, align 4
  br label %31

19:                                               ; preds = %14
  %20 = load i64, ptr %7, align 8
  %21 = load i64, ptr @ReferencesPerThread, align 8
  %22 = udiv i64 %20, %21
  %23 = add i64 1, %22
  store i64 %23, ptr %10, align 8
  %24 = load i64, ptr %10, align 8
  %25 = load i32, ptr %8, align 4
  %26 = zext i32 %25 to i64
  %27 = call noundef i32 @_ZN2os22active_processor_countEv()
  %28 = sext i32 %27 to i64
  %29 = call noundef i64 @_Z4MIN3ImET_S0_S0_S0_(i64 noundef %24, i64 noundef %26, i64 noundef %28)
  %30 = trunc i64 %29 to i32
  store i32 %30, ptr %5, align 4
  br label %31

31:                                               ; preds = %19, %17
  %32 = load i32, ptr %5, align 4
  ret i32 %32
}

; Function Attrs: mustprogress nounwind uwtable
define linkonce_odr hidden noundef i32 @_ZNK18ReferenceProcessor10num_queuesEv(ptr noundef nonnull align 8 dereferenceable(88) %0) #1 comdat align 2 {
  %2 = alloca ptr, align 8
  store ptr %0, ptr %2, align 8
  %3 = load ptr, ptr %2, align 8
  %4 = getelementptr inbounds %class.ReferenceProcessor, ptr %3, i32 0, i32 8
  %5 = load i32, ptr %4, align 8
  ret i32 %5
}

; Function Attrs: mustprogress nounwind uwtable
define hidden void @_ZN23RefProcMTDegreeAdjusterC2EP18ReferenceProcessorNS0_13RefProcPhasesEm(ptr noundef nonnull align 8 dereferenceable(12) %0, ptr noundef %1, i32 noundef %2, i64 noundef %3) unnamed_addr #1 align 2 {
  %5 = alloca ptr, align 8
  %6 = alloca ptr, align 8
  %7 = alloca i32, align 4
  %8 = alloca i64, align 8
  %9 = alloca i32, align 4
  store ptr %0, ptr %5, align 8
  store ptr %1, ptr %6, align 8
  store i32 %2, ptr %7, align 4
  store i64 %3, ptr %8, align 8
  %10 = load ptr, ptr %5, align 8
  %11 = getelementptr inbounds %class.RefProcMTDegreeAdjuster, ptr %10, i32 0, i32 0
  %12 = load ptr, ptr %6, align 8
  store ptr %12, ptr %11, align 8
  %13 = getelementptr inbounds %class.RefProcMTDegreeAdjuster, ptr %10, i32 0, i32 1
  %14 = getelementptr inbounds %class.RefProcMTDegreeAdjuster, ptr %10, i32 0, i32 0
  %15 = load ptr, ptr %14, align 8
  %16 = call noundef i32 @_ZNK18ReferenceProcessor10num_queuesEv(ptr noundef nonnull align 8 dereferenceable(88) %15)
  store i32 %16, ptr %13, align 8
  %17 = load i64, ptr %8, align 8
  %18 = getelementptr inbounds %class.RefProcMTDegreeAdjuster, ptr %10, i32 0, i32 0
  %19 = load ptr, ptr %18, align 8
  %20 = call noundef i32 @_ZNK18ReferenceProcessor10num_queuesEv(ptr noundef nonnull align 8 dereferenceable(88) %19)
  %21 = load i32, ptr %7, align 4
  %22 = call noundef i32 @_ZNK23RefProcMTDegreeAdjuster22ergo_proc_thread_countEmjN18ReferenceProcessor13RefProcPhasesE(ptr noundef nonnull align 8 dereferenceable(12) %10, i64 noundef %17, i32 noundef %20, i32 noundef %21)
  store i32 %22, ptr %9, align 4
  %23 = getelementptr inbounds %class.RefProcMTDegreeAdjuster, ptr %10, i32 0, i32 0
  %24 = load ptr, ptr %23, align 8
  %25 = load i32, ptr %9, align 4
  call void @_ZN18ReferenceProcessor20set_active_mt_degreeEj(ptr noundef nonnull align 8 dereferenceable(88) %24, i32 noundef %25)
  ret void
}