; Function Attrs: mustprogress nounwind uwtable
define hidden void @_ZN23RefProcMTDegreeAdjusterC2EP18ReferenceProcessorNS0_13RefProcPhasesEm(ptr nocapture noundef nonnull align 8 dereferenceable(12) %0, ptr noundef %1, i32 noundef %2, i64 noundef %3) unnamed_addr #0 align 2 {
  store ptr %1, ptr %0, align 8
  %5 = getelementptr inbounds i8, ptr %0, i64 8
  %6 = getelementptr inbounds i8, ptr %1, i64 40
  %7 = load i32, ptr %6, align 8
  store i32 %7, ptr %5, align 8
  %8 = icmp eq i32 %2, 1
  %9 = load i64, ptr @ReferencesPerThread, align 8
  %10 = icmp eq i64 %9, 0
  %or.cond.i = select i1 %8, i1 true, i1 %10
  br i1 %or.cond.i, label %_ZNK23RefProcMTDegreeAdjuster22ergo_proc_thread_countEmjN18ReferenceProcessor13RefProcPhasesE.exit, label %11

11:                                               ; preds = %4
  %12 = udiv i64 %3, %9
  %13 = add i64 %12, 1
  %14 = zext i32 %7 to i64
  %15 = tail call noundef i32 @_ZN2os22active_processor_countEv() #17
  %16 = sext i32 %15 to i64
  %17 = tail call noundef i64 @llvm.umin.i64(i64 %13, i64 %14)
  %18 = tail call noundef i64 @llvm.umin.i64(i64 %17, i64 %16)
  %19 = trunc nuw i64 %18 to i32
  %.pre = load ptr, ptr %0, align 8
  br label %_ZNK23RefProcMTDegreeAdjuster22ergo_proc_thread_countEmjN18ReferenceProcessor13RefProcPhasesE.exit

_ZNK23RefProcMTDegreeAdjuster22ergo_proc_thread_countEmjN18ReferenceProcessor13RefProcPhasesE.exit: ; preds = %4, %11
  %20 = phi ptr [ %.pre, %11 ], [ %1, %4 ]
  %.0.i = phi i32 [ %19, %11 ], [ %7, %4 ]
  %21 = getelementptr inbounds i8, ptr %20, i64 40
  store i32 %.0.i, ptr %21, align 8
  %22 = getelementptr inbounds i8, ptr %20, i64 20
  store i32 0, ptr %22, align 4
  ret void
}